target datalayout = "e-m:e-p270:32:32-p271:32:32-p272:64:64-i64:64-i128:128-f80:128-n8:16:32:64-S128"
target triple = "x86_64-unknown-linux-gnu"

%"class.rocksdb::(anonymous namespace)::HashLinkListRep::LinkListIterator" = type { %"class.rocksdb::MemTableRep::Iterator", ptr, ptr, ptr }
%"class.rocksdb::MemTableRep::Iterator" = type { ptr }
%"class.rocksdb::(anonymous namespace)::HashLinkListRep::DynamicIterator" = type { %"class.rocksdb::(anonymous namespace)::HashLinkListRep::LinkListIterator", ptr, %"class.std::unique_ptr.66" }
%"class.std::unique_ptr.66" = type { %"struct.std::__uniq_ptr_data.67" }
%"struct.std::__uniq_ptr_data.67" = type { %"class.std::__uniq_ptr_impl.68" }
%"class.std::__uniq_ptr_impl.68" = type { %"class.std::tuple.69" }
%"class.std::tuple.69" = type { %"struct.std::_Tuple_impl.70" }
%"struct.std::_Tuple_impl.70" = type { %"struct.std::_Head_base.73" }
%"struct.std::_Head_base.73" = type { ptr }

; Function Attrs: mustprogress nounwind uwtable
define linkonce_odr void @_ZNSt10_Head_baseILm1ESt14default_deleteIN7rocksdb8SkipListIPKcRKNS1_11MemTableRep13KeyComparatorEE8IteratorEELb1EEC2Ev(ptr noundef nonnull align 1 dereferenceable(1) %this) unnamed_addr #1 comdat align 2 {
entry:
  %this.addr = alloca ptr, align 8
  store ptr %this, ptr %this.addr, align 8
  ret void
}

; Function Attrs: mustprogress nounwind uwtable
define linkonce_odr void @_ZNSt10_Head_baseILm0EPN7rocksdb8SkipListIPKcRKNS0_11MemTableRep13KeyComparatorEE8IteratorELb0EEC2Ev(ptr noundef nonnull align 8 dereferenceable(8) %this) unnamed_addr #1 comdat align 2 {
entry:
  %this.addr = alloca ptr, align 8
  store ptr %this, ptr %this.addr, align 8
  %this1 = load ptr, ptr %this.addr, align 8
  %_M_head_impl = getelementptr inbounds %"struct.std::_Head_base.73", ptr %this1, i32 0, i32 0
  store ptr null, ptr %_M_head_impl, align 8
  ret void
}

; Function Attrs: mustprogress uwtable
define linkonce_odr void @_ZNSt11_Tuple_implILm1EJSt14default_deleteIN7rocksdb8SkipListIPKcRKNS1_11MemTableRep13KeyComparatorEE8IteratorEEEEC2Ev(ptr noundef nonnull align 1 dereferenceable(1) %this) unnamed_addr #0 comdat align 2 {
entry:
  %this.addr = alloca ptr, align 8
  store ptr %this, ptr %this.addr, align 8
  %this1 = load ptr, ptr %this.addr, align 8
  call void @_ZNSt10_Head_baseILm1ESt14default_deleteIN7rocksdb8SkipListIPKcRKNS1_11MemTableRep13KeyComparatorEE8IteratorEELb1EEC2Ev(ptr noundef nonnull align 1 dereferenceable(1) %this1)
  ret void
}

; Function Attrs: noreturn nounwind uwtable
define linkonce_odr hidden void @__clang_call_terminate(ptr noundef %0) #11 comdat {
  %2 = call ptr @__cxa_begin_catch(ptr %0) #3
  call void @_ZSt9terminatev() #15
  unreachable
}

; Function Attrs: mustprogress uwtable
define linkonce_odr void @_ZNSt11_Tuple_implILm0EJPN7rocksdb8SkipListIPKcRKNS0_11MemTableRep13KeyComparatorEE8IteratorESt14default_deleteIS9_EEEC2Ev(ptr noundef nonnull align 8 dereferenceable(8) %this) unnamed_addr #0 comdat align 2 {
entry:
  %this.addr = alloca ptr, align 8
  store ptr %this, ptr %this.addr, align 8
  %this1 = load ptr, ptr %this.addr, align 8
  call void @_ZNSt11_Tuple_implILm1EJSt14default_deleteIN7rocksdb8SkipListIPKcRKNS1_11MemTableRep13KeyComparatorEE8IteratorEEEEC2Ev(ptr noundef nonnull align 1 dereferenceable(1) %this1)
  call void @_ZNSt10_Head_baseILm0EPN7rocksdb8SkipListIPKcRKNS0_11MemTableRep13KeyComparatorEE8IteratorELb0EEC2Ev(ptr noundef nonnull align 8 dereferenceable(8) %this1)
  ret void
}

; Function Attrs: mustprogress nounwind uwtable
define linkonce_odr void @_ZNSt5tupleIJPN7rocksdb8SkipListIPKcRKNS0_11MemTableRep13KeyComparatorEE8IteratorESt14default_deleteIS9_EEEC2ILb1ETnNSt9enable_ifIXclsr17_TupleConstraintsIXT_ESA_SC_EE37__is_implicitly_default_constructibleEEbE4typeELb1EEEv(ptr noundef nonnull align 8 dereferenceable(8) %this) unnamed_addr #1 comdat align 2 personality ptr @__gxx_personality_v0 {
entry:
  %this.addr = alloca ptr, align 8
  store ptr %this, ptr %this.addr, align 8
  %this1 = load ptr, ptr %this.addr, align 8
  invoke void @_ZNSt11_Tuple_implILm0EJPN7rocksdb8SkipListIPKcRKNS0_11MemTableRep13KeyComparatorEE8IteratorESt14default_deleteIS9_EEEC2Ev(ptr noundef nonnull align 8 dereferenceable(8) %this1)
          to label %invoke.cont unwind label %terminate.lpad

invoke.cont:                                      ; preds = %entry
  ret void

terminate.lpad:                                   ; preds = %entry
  %0 = landingpad { ptr, i32 }
          catch ptr null
  %1 = extractvalue { ptr, i32 } %0, 0
  call void @__clang_call_terminate(ptr %1) #15
  unreachable
}

; Function Attrs: mustprogress nounwind uwtable
define linkonce_odr void @_ZNSt15__uniq_ptr_implIN7rocksdb8SkipListIPKcRKNS0_11MemTableRep13KeyComparatorEE8IteratorESt14default_deleteIS9_EEC2Ev(ptr noundef nonnull align 8 dereferenceable(8) %this) unnamed_addr #1 comdat align 2 {
entry:
  %this.addr = alloca ptr, align 8
  store ptr %this, ptr %this.addr, align 8
  %this1 = load ptr, ptr %this.addr, align 8
  %_M_t = getelementptr inbounds %"class.std::__uniq_ptr_impl.68", ptr %this1, i32 0, i32 0
  call void @_ZNSt5tupleIJPN7rocksdb8SkipListIPKcRKNS0_11MemTableRep13KeyComparatorEE8IteratorESt14default_deleteIS9_EEEC2ILb1ETnNSt9enable_ifIXclsr17_TupleConstraintsIXT_ESA_SC_EE37__is_implicitly_default_constructibleEEbE4typeELb1EEEv(ptr noundef nonnull align 8 dereferenceable(8) %_M_t) #3
  ret void
}

; Function Attrs: mustprogress nounwind uwtable
define linkonce_odr void @_ZNSt15__uniq_ptr_dataIN7rocksdb8SkipListIPKcRKNS0_11MemTableRep13KeyComparatorEE8IteratorESt14default_deleteIS9_ELb1ELb1EEC2Ev(ptr noundef nonnull align 8 dereferenceable(8) %this) unnamed_addr #1 comdat align 2 {
entry:
  %this.addr = alloca ptr, align 8
  store ptr %this, ptr %this.addr, align 8
  %this1 = load ptr, ptr %this.addr, align 8
  call void @_ZNSt15__uniq_ptr_implIN7rocksdb8SkipListIPKcRKNS0_11MemTableRep13KeyComparatorEE8IteratorESt14default_deleteIS9_EEC2Ev(ptr noundef nonnull align 8 dereferenceable(8) %this1) #3
  ret void
}

; Function Attrs: mustprogress nounwind uwtable
define linkonce_odr void @_ZN7rocksdb11MemTableRep8IteratorC2Ev(ptr noundef nonnull align 8 dereferenceable(8) %this) unnamed_addr #1 comdat align 2 {
entry:
  %this.addr = alloca ptr, align 8
  store ptr %this, ptr %this.addr, align 8
  %this1 = load ptr, ptr %this.addr, align 8
  store ptr getelementptr inbounds ({ [13 x ptr] }, ptr @_ZTVN7rocksdb11MemTableRep8IteratorE, i32 0, i32 0, i32 2), ptr %this1, align 8
  ret void
}

; Function Attrs: mustprogress nounwind uwtable
define linkonce_odr void @_ZNSt10unique_ptrIN7rocksdb8SkipListIPKcRKNS0_11MemTableRep13KeyComparatorEE8IteratorESt14default_deleteIS9_EEC2ISB_vEEv(ptr noundef nonnull align 8 dereferenceable(8) %this) unnamed_addr #1 comdat align 2 {
entry:
  %this.addr = alloca ptr, align 8
  store ptr %this, ptr %this.addr, align 8
  %this1 = load ptr, ptr %this.addr, align 8
  %_M_t = getelementptr inbounds %"class.std::unique_ptr.66", ptr %this1, i32 0, i32 0
  call void @llvm.memset.p0.i64(ptr align 8 %_M_t, i8 0, i64 8, i1 false)
  call void @_ZNSt15__uniq_ptr_dataIN7rocksdb8SkipListIPKcRKNS0_11MemTableRep13KeyComparatorEE8IteratorESt14default_deleteIS9_ELb1ELb1EEC2Ev(ptr noundef nonnull align 8 dereferenceable(8) %_M_t) #3
  ret void
}

; Function Attrs: mustprogress nounwind uwtable
define internal void @_ZN7rocksdb12_GLOBAL__N_115HashLinkListRep16LinkListIteratorC2EPKS1_PNS0_4NodeE(ptr noundef nonnull align 8 dereferenceable(32) %this, ptr noundef %hash_link_list_rep, ptr noundef %head) unnamed_addr #1 align 2 {
entry:
  %this.addr = alloca ptr, align 8
  %hash_link_list_rep.addr = alloca ptr, align 8
  %head.addr = alloca ptr, align 8
  store ptr %this, ptr %this.addr, align 8
  store ptr %hash_link_list_rep, ptr %hash_link_list_rep.addr, align 8
  store ptr %head, ptr %head.addr, align 8
  %this1 = load ptr, ptr %this.addr, align 8
  call void @_ZN7rocksdb11MemTableRep8IteratorC2Ev(ptr noundef nonnull align 8 dereferenceable(8) %this1) #3
  store ptr getelementptr inbounds ({ [14 x ptr] }, ptr @_ZTVN7rocksdb12_GLOBAL__N_115HashLinkListRep16LinkListIteratorE, i32 0, i32 0, i32 2), ptr %this1, align 8
  %hash_link_list_rep_ = getelementptr inbounds %"class.rocksdb::(anonymous namespace)::HashLinkListRep::LinkListIterator", ptr %this1, i32 0, i32 1
  %0 = load ptr, ptr %hash_link_list_rep.addr, align 8
  store ptr %0, ptr %hash_link_list_rep_, align 8
  %head_ = getelementptr inbounds %"class.rocksdb::(anonymous namespace)::HashLinkListRep::LinkListIterator", ptr %this1, i32 0, i32 2
  %1 = load ptr, ptr %head.addr, align 8
  store ptr %1, ptr %head_, align 8
  %node_ = getelementptr inbounds %"class.rocksdb::(anonymous namespace)::HashLinkListRep::LinkListIterator", ptr %this1, i32 0, i32 3
  store ptr null, ptr %node_, align 8
  ret void
}

; Function Attrs: mustprogress nounwind uwtable
define internal void @_ZN7rocksdb12_GLOBAL__N_115HashLinkListRep15DynamicIteratorC2ERS1_(ptr noundef nonnull align 8 dereferenceable(48) %this, ptr noundef nonnull align 8 dereferenceable(69) %memtable_rep) unnamed_addr #1 align 2 {
entry:
  %this.addr = alloca ptr, align 8
  %memtable_rep.addr = alloca ptr, align 8
  store ptr %this, ptr %this.addr, align 8
  store ptr %memtable_rep, ptr %memtable_rep.addr, align 8
  %this1 = load ptr, ptr %this.addr, align 8
  %0 = load ptr, ptr %memtable_rep.addr, align 8
  call void @_ZN7rocksdb12_GLOBAL__N_115HashLinkListRep16LinkListIteratorC2EPKS1_PNS0_4NodeE(ptr noundef nonnull align 8 dereferenceable(32) %this1, ptr noundef %0, ptr noundef null)
  store ptr getelementptr inbounds ({ [14 x ptr] }, ptr @_ZTVN7rocksdb12_GLOBAL__N_115HashLinkListRep15DynamicIteratorE, i32 0, i32 0, i32 2), ptr %this1, align 8
  %memtable_rep_ = getelementptr inbounds %"class.rocksdb::(anonymous namespace)::HashLinkListRep::DynamicIterator", ptr %this1, i32 0, i32 1
  %1 = load ptr, ptr %memtable_rep.addr, align 8
  store ptr %1, ptr %memtable_rep_, align 8
  %skip_list_iter_ = getelementptr inbounds %"class.rocksdb::(anonymous namespace)::HashLinkListRep::DynamicIterator", ptr %this1, i32 0, i32 2
  call void @_ZNSt10unique_ptrIN7rocksdb8SkipListIPKcRKNS0_11MemTableRep13KeyComparatorEE8IteratorESt14default_deleteIS9_EEC2ISB_vEEv(ptr noundef nonnull align 8 dereferenceable(8) %skip_list_iter_) #3
  ret void
}

; Function Attrs: mustprogress uwtable
define internal noundef ptr @_ZN7rocksdb12_GLOBAL__N_115HashLinkListRep24GetDynamicPrefixIteratorEPNS_5ArenaE(ptr noundef nonnull align 8 dereferenceable(69) %this, ptr noundef %alloc_arena) unnamed_addr #0 align 2 personality ptr @__gxx_personality_v0 {
entry:
  %retval = alloca ptr, align 8
  %this.addr = alloca ptr, align 8
  %alloc_arena.addr = alloca ptr, align 8
  %exn.slot = alloca ptr, align 8
  %ehselector.slot = alloca i32, align 4
  %mem = alloca ptr, align 8
  store ptr %this, ptr %this.addr, align 8
  store ptr %alloc_arena, ptr %alloc_arena.addr, align 8
  %this1 = load ptr, ptr %this.addr, align 8
  %0 = load ptr, ptr %alloc_arena.addr, align 8
  %cmp = icmp eq ptr %0, null
  br i1 %cmp, label %if.then, label %if.else

if.then:                                          ; preds = %entry
  %call = call noalias noundef nonnull ptr @_Znwm(i64 noundef 48) #17
  invoke void @_ZN7rocksdb12_GLOBAL__N_115HashLinkListRep15DynamicIteratorC2ERS1_(ptr noundef nonnull align 8 dereferenceable(48) %call, ptr noundef nonnull align 8 dereferenceable(69) %this1)
          to label %invoke.cont unwind label %lpad

invoke.cont:                                      ; preds = %if.then
  store ptr %call, ptr %retval, align 8
  br label %return

lpad:                                             ; preds = %if.then
  %1 = landingpad { ptr, i32 }
          cleanup
  %2 = extractvalue { ptr, i32 } %1, 0
  store ptr %2, ptr %exn.slot, align 8
  %3 = extractvalue { ptr, i32 } %1, 1
  store i32 %3, ptr %ehselector.slot, align 4
  call void @_ZdlPv(ptr noundef %call) #18
  br label %eh.resume

if.else:                                          ; preds = %entry
  %4 = load ptr, ptr %alloc_arena.addr, align 8
  %vtable = load ptr, ptr %4, align 16
  %vfn = getelementptr inbounds ptr, ptr %vtable, i64 3
  %5 = load ptr, ptr %vfn, align 8
  %call2 = call noundef ptr %5(ptr noundef nonnull align 16 dereferenceable(2288) %4, i64 noundef 48, i64 noundef 0, ptr noundef null)
  store ptr %call2, ptr %mem, align 8
  %6 = load ptr, ptr %mem, align 8
  call void @_ZN7rocksdb12_GLOBAL__N_115HashLinkListRep15DynamicIteratorC2ERS1_(ptr noundef nonnull align 8 dereferenceable(48) %6, ptr noundef nonnull align 8 dereferenceable(69) %this1)
  store ptr %6, ptr %retval, align 8
  br label %return

return:                                           ; preds = %if.else, %invoke.cont
  %7 = load ptr, ptr %retval, align 8
  ret ptr %7

eh.resume:                                        ; preds = %lpad
  %exn = load ptr, ptr %exn.slot, align 8
  %sel = load i32, ptr %ehselector.slot, align 4
  %lpad.val = insertvalue { ptr, i32 } poison, ptr %exn, 0
  %lpad.val3 = insertvalue { ptr, i32 } %lpad.val, i32 %sel, 1
  resume { ptr, i32 } %lpad.val3
}