; Function Attrs: mustprogress uwtable
define internal noundef ptr @_ZN7rocksdb12_GLOBAL__N_115HashLinkListRep24GetDynamicPrefixIteratorEPNS_5ArenaE(ptr noundef nonnull align 8 dereferenceable(69) %this, ptr noundef %alloc_arena) unnamed_addr #3 align 2 personality ptr @__gxx_personality_v0 {
entry:
  %cmp = icmp eq ptr %alloc_arena, null
  br i1 %cmp, label %if.then, label %if.else

if.then:                                          ; preds = %entry
  %call = tail call noalias noundef nonnull dereferenceable(48) ptr @_Znwm(i64 noundef 48) #26
  br label %return

if.else:                                          ; preds = %entry
  %vtable = load ptr, ptr %alloc_arena, align 16
  %vfn = getelementptr inbounds i8, ptr %vtable, i64 24
  %0 = load ptr, ptr %vfn, align 8
  %call2 = tail call noundef ptr %0(ptr noundef nonnull align 16 dereferenceable(2288) %alloc_arena, i64 noundef 48, i64 noundef 0, ptr noundef null)
  br label %return

return:                                           ; preds = %if.else, %if.then
  %call2.sink9 = phi ptr [ %call2, %if.else ], [ %call, %if.then ]
  %hash_link_list_rep_.i.i2 = getelementptr inbounds i8, ptr %call2.sink9, i64 8
  store ptr %this, ptr %hash_link_list_rep_.i.i2, align 8
  %head_.i.i3 = getelementptr inbounds i8, ptr %call2.sink9, i64 16
  tail call void @llvm.memset.p0.i64(ptr noundef nonnull align 8 dereferenceable(16) %head_.i.i3, i8 0, i64 16, i1 false)
  store ptr getelementptr inbounds ({ [14 x ptr] }, ptr @_ZTVN7rocksdb12_GLOBAL__N_115HashLinkListRep15DynamicIteratorE, i64 0, i32 0, i64 2), ptr %call2.sink9, align 8
  %memtable_rep_.i4 = getelementptr inbounds i8, ptr %call2.sink9, i64 32
  store ptr %this, ptr %memtable_rep_.i4, align 8
  %skip_list_iter_.i5 = getelementptr inbounds i8, ptr %call2.sink9, i64 40
  store ptr null, ptr %skip_list_iter_.i5, align 8
  ret ptr %call2.sink9
}